target datalayout = "e-m:e-p270:32:32-p271:32:32-p272:64:64-i64:64-i128:128-f80:128-n8:16:32:64-S128"
target triple = "x86_64-pc-linux-gnu"

%struct.except_id_t = type { i64, i64 }
%struct.rlc_nr_info = type { i8, i8, i8, i8, i8, i16, i16 }
%struct._proto_node = type { ptr, ptr, ptr, ptr, ptr, ptr, ptr }
%struct.field_info = type { ptr, i32, i32, i32, i32, i32, i32, ptr, ptr, ptr, i32, i32 }
%struct.except_stacknode = type { ptr, i32, %union.anon }
%union.anon = type { ptr }
%struct.except_catch = type { ptr, i64, %struct.except_t, [1 x %struct.__jmp_buf_tag] }
%struct.except_t = type { %struct.except_id_t, ptr, ptr }
%struct.__jmp_buf_tag = type { [8 x i64], i32, %struct.__sigset_t }
%struct.__sigset_t = type { [16 x i64] }

@hf_rlc_nr_tm = internal global i32 0, align 4
@.str.22 = private unnamed_addr constant [3 x i8] c"TM\00", align 1
@hf_rlc_nr_tm_data = internal global i32 0, align 4
@global_rlc_nr_call_rrc_for_ccch = internal global i8 1, align 1
@nr_rrc_bcch_bch = internal global ptr null, align 8
@nr_rrc_bcch_dl_sch = internal global ptr null, align 8
@nr_rrc_pcch = internal global ptr null, align 8
@nr_rrc_ul_ccch = internal global ptr null, align 8
@nr_rrc_ul_ccch1 = internal global ptr null, align 8
@nr_rrc_dl_ccch = internal global ptr null, align 8
@.str.213 = private unnamed_addr constant [1 x i8] zeroinitializer, align 1
@.str.225 = private unnamed_addr constant [42 x i8] c"                               [%u-bytes]\00", align 1
@dissect_rlc_nr_tm.catch_spec = internal constant [1 x %struct.except_id_t] [%struct.except_id_t { i64 1, i64 0 }], align 16

; Function Attrs: inlinehint nounwind null_pointer_is_valid sspstrong uwtable
define internal void @proto_item_set_hidden(ptr noundef %0) #4 {
  %2 = alloca ptr, align 8
  store ptr %0, ptr %2, align 8
  %3 = load ptr, ptr %2, align 8
  %4 = icmp ne ptr %3, null
  br i1 %4, label %5, label %24

5:                                                ; preds = %1
  br label %6

6:                                                ; preds = %5
  %7 = load ptr, ptr %2, align 8
  %8 = getelementptr inbounds nuw %struct._proto_node, ptr %7, i32 0, i32 5
  %9 = load ptr, ptr %8, align 8
  %10 = icmp ne ptr %9, null
  br i1 %10, label %11, label %22

11:                                               ; preds = %6
  %12 = load ptr, ptr %2, align 8
  %13 = getelementptr inbounds nuw %struct._proto_node, ptr %12, i32 0, i32 5
  %14 = load ptr, ptr %13, align 8
  %15 = getelementptr inbounds nuw %struct.field_info, ptr %14, i32 0, i32 6
  %16 = load i32, ptr %15, align 4
  %17 = or i32 %16, 1
  %18 = load ptr, ptr %2, align 8
  %19 = getelementptr inbounds nuw %struct._proto_node, ptr %18, i32 0, i32 5
  %20 = load ptr, ptr %19, align 8
  %21 = getelementptr inbounds nuw %struct.field_info, ptr %20, i32 0, i32 6
  store i32 %17, ptr %21, align 4
  br label %22

22:                                               ; preds = %11, %6
  br label %23

23:                                               ; preds = %22
  br label %24

24:                                               ; preds = %23, %1
  ret void
}

; Function Attrs: null_pointer_is_valid sspstrong uwtable
define internal void @dissect_rlc_nr_tm(ptr noundef %0, ptr noundef %1, ptr noundef %2, i32 noundef %3, ptr noundef %4, ptr noundef %5) #0 {
  %7 = alloca ptr, align 8
  %8 = alloca ptr, align 8
  %9 = alloca ptr, align 8
  %10 = alloca i32, align 4
  %11 = alloca ptr, align 8
  %12 = alloca ptr, align 8
  %13 = alloca ptr, align 8
  %14 = alloca ptr, align 8
  %15 = alloca ptr, align 8
  %16 = alloca ptr, align 8
  %17 = alloca i32, align 4
  %18 = alloca ptr, align 8
  %19 = alloca i32, align 4
  %20 = alloca %struct.except_stacknode, align 8
  %21 = alloca %struct.except_catch, align 8
  store ptr %0, ptr %7, align 8
  store ptr %1, ptr %8, align 8
  store ptr %2, ptr %9, align 8
  store i32 %3, ptr %10, align 4
  store ptr %4, ptr %11, align 8
  store ptr %5, ptr %12, align 8
  call void @llvm.lifetime.start.p0(i64 8, ptr %13) #12
  call void @llvm.lifetime.start.p0(i64 8, ptr %14) #12
  %22 = load ptr, ptr %9, align 8
  %23 = load i32, ptr @hf_rlc_nr_tm, align 4
  %24 = load ptr, ptr %7, align 8
  %25 = load i32, ptr %10, align 4
  %26 = call ptr (ptr, i32, ptr, i32, i32, ptr, ptr, ...) @proto_tree_add_string_format(ptr noundef %22, i32 noundef %23, ptr noundef %24, i32 noundef %25, i32 noundef 0, ptr noundef @.str.213, ptr noundef @.str.22)
  store ptr %26, ptr %14, align 8
  %27 = load ptr, ptr %14, align 8
  call void @proto_item_set_hidden(ptr noundef %27)
  %28 = load ptr, ptr %9, align 8
  %29 = load i32, ptr @hf_rlc_nr_tm_data, align 4
  %30 = load ptr, ptr %7, align 8
  %31 = load i32, ptr %10, align 4
  %32 = call ptr @proto_tree_add_item(ptr noundef %28, i32 noundef %29, ptr noundef %30, i32 noundef %31, i32 noundef -1, i32 noundef 0)
  store ptr %32, ptr %13, align 8
  %33 = load i8, ptr @global_rlc_nr_call_rrc_for_ccch, align 1, !range !6, !noundef !7
  %34 = trunc i8 %33 to i1
  br i1 %34, label %41, label %35

35:                                               ; preds = %6
  %36 = load ptr, ptr %12, align 8
  %37 = load ptr, ptr %8, align 8
  %38 = load ptr, ptr %7, align 8
  %39 = load i32, ptr %10, align 4
  %40 = call i32 @tvb_reported_length_remaining(ptr noundef %38, i32 noundef %39)
  call void (ptr, ptr, ptr, ptr, ...) @write_pdu_label_and_info(ptr noundef %36, ptr noundef null, ptr noundef %37, ptr noundef @.str.225, i32 noundef %40)
  br label %41

41:                                               ; preds = %35, %6
  %42 = load i8, ptr @global_rlc_nr_call_rrc_for_ccch, align 1, !range !6, !noundef !7
  %43 = trunc i8 %42 to i1
  br i1 %43, label %44, label %137

44:                                               ; preds = %41
  call void @llvm.lifetime.start.p0(i64 8, ptr %15) #12
  %45 = load ptr, ptr %7, align 8
  %46 = load i32, ptr %10, align 4
  %47 = call ptr @tvb_new_subset_remaining(ptr noundef %45, i32 noundef %46)
  store ptr %47, ptr %15, align 8
  call void @llvm.lifetime.start.p0(i64 8, ptr %16) #12
  %48 = load ptr, ptr %11, align 8
  %49 = getelementptr inbounds nuw %struct.rlc_nr_info, ptr %48, i32 0, i32 3
  %50 = load i8, ptr %49, align 1
  %51 = zext i8 %50 to i32
  switch i32 %51, label %78 [
    i32 2, label %52
    i32 6, label %54
    i32 3, label %56
    i32 1, label %58
    i32 4, label %77
    i32 5, label %77
  ]

52:                                               ; preds = %44
  %53 = load ptr, ptr @nr_rrc_bcch_bch, align 8
  store volatile ptr %53, ptr %16, align 8
  br label %79

54:                                               ; preds = %44
  %55 = load ptr, ptr @nr_rrc_bcch_dl_sch, align 8
  store volatile ptr %55, ptr %16, align 8
  br label %79

56:                                               ; preds = %44
  %57 = load ptr, ptr @nr_rrc_pcch, align 8
  store volatile ptr %57, ptr %16, align 8
  br label %79

58:                                               ; preds = %44
  %59 = load ptr, ptr %11, align 8
  %60 = getelementptr inbounds nuw %struct.rlc_nr_info, ptr %59, i32 0, i32 1
  %61 = load i8, ptr %60, align 1
  %62 = zext i8 %61 to i32
  %63 = icmp eq i32 %62, 0
  br i1 %63, label %64, label %74

64:                                               ; preds = %58
  %65 = load ptr, ptr %15, align 8
  %66 = call i32 @tvb_reported_length(ptr noundef %65)
  %67 = icmp eq i32 %66, 8
  br i1 %67, label %68, label %70

68:                                               ; preds = %64
  %69 = load ptr, ptr @nr_rrc_ul_ccch1, align 8
  br label %72

70:                                               ; preds = %64
  %71 = load ptr, ptr @nr_rrc_ul_ccch, align 8
  br label %72

72:                                               ; preds = %70, %68
  %73 = phi ptr [ %69, %68 ], [ %71, %70 ]
  store volatile ptr %73, ptr %16, align 8
  br label %76

74:                                               ; preds = %58
  %75 = load ptr, ptr @nr_rrc_dl_ccch, align 8
  store volatile ptr %75, ptr %16, align 8
  br label %76

76:                                               ; preds = %74, %72
  br label %79

77:                                               ; preds = %44, %44
  br label %78

78:                                               ; preds = %44, %77
  store i32 1, ptr %17, align 4
  br label %134

79:                                               ; preds = %76, %56, %54, %52
  %80 = load ptr, ptr %13, align 8
  call void @proto_item_set_hidden(ptr noundef %80)
  call void @llvm.lifetime.start.p0(i64 8, ptr %18) #12
  call void @llvm.lifetime.start.p0(i64 4, ptr %19) #12
  store volatile i32 0, ptr %19, align 4
  call void @llvm.lifetime.start.p0(i64 24, ptr %20) #12
  call void @llvm.lifetime.start.p0(i64 248, ptr %21) #12
  call void @except_setup_try(ptr noundef %20, ptr noundef %21, ptr noundef @dissect_rlc_nr_tm.catch_spec, i64 noundef 1)
  %81 = getelementptr inbounds nuw %struct.except_catch, ptr %21, i32 0, i32 3
  %82 = getelementptr inbounds [1 x %struct.__jmp_buf_tag], ptr %81, i64 0, i64 0
  %83 = call i32 @_setjmp(ptr noundef %82) #14
  %84 = icmp ne i32 %83, 0
  br i1 %84, label %85, label %87

85:                                               ; preds = %79
  %86 = getelementptr inbounds nuw %struct.except_catch, ptr %21, i32 0, i32 2
  store volatile ptr %86, ptr %18, align 8
  br label %88

87:                                               ; preds = %79
  store volatile ptr null, ptr %18, align 8
  br label %88

88:                                               ; preds = %87, %85
  %89 = load volatile i32, ptr %19, align 4
  %90 = and i32 %89, 1
  %91 = icmp ne i32 %90, 0
  br i1 %91, label %92, label %95

92:                                               ; preds = %88
  %93 = load volatile i32, ptr %19, align 4
  %94 = or i32 %93, 2
  store volatile i32 %94, ptr %19, align 4
  br label %95

95:                                               ; preds = %92, %88
  %96 = load volatile i32, ptr %19, align 4
  %97 = and i32 %96, -2
  store volatile i32 %97, ptr %19, align 4
  %98 = load volatile i32, ptr %19, align 4
  %99 = icmp eq i32 %98, 0
  br i1 %99, label %100, label %109

100:                                              ; preds = %95
  %101 = load volatile ptr, ptr %18, align 8
  %102 = icmp eq ptr %101, null
  br i1 %102, label %103, label %109

103:                                              ; preds = %100
  %104 = load volatile ptr, ptr %16, align 8
  %105 = load ptr, ptr %15, align 8
  %106 = load ptr, ptr %8, align 8
  %107 = load ptr, ptr %9, align 8
  %108 = call i32 @call_dissector_only(ptr noundef %104, ptr noundef %105, ptr noundef %106, ptr noundef %107, ptr noundef null)
  br label %109

109:                                              ; preds = %103, %100, %95
  %110 = load volatile i32, ptr %19, align 4
  %111 = icmp eq i32 %110, 0
  br i1 %111, label %112, label %120

112:                                              ; preds = %109
  %113 = load volatile ptr, ptr %18, align 8
  %114 = icmp ne ptr %113, null
  br i1 %114, label %115, label %120

115:                                              ; preds = %112
  %116 = load volatile i32, ptr %19, align 4
  %117 = or i32 %116, 1
  store volatile i32 %117, ptr %19, align 4
  %118 = icmp ne i32 %117, 0
  br i1 %118, label %119, label %120

119:                                              ; preds = %115
  br label %120

120:                                              ; preds = %119, %115, %112, %109
  %121 = load volatile i32, ptr %19, align 4
  %122 = and i32 %121, 1
  %123 = icmp ne i32 %122, 0
  br i1 %123, label %129, label %124

124:                                              ; preds = %120
  %125 = load volatile ptr, ptr %18, align 8
  %126 = icmp ne ptr %125, null
  br i1 %126, label %127, label %129

127:                                              ; preds = %124
  %128 = load volatile ptr, ptr %18, align 8
  call void @except_rethrow(ptr noundef %128) #15
  unreachable

129:                                              ; preds = %124, %120
  %130 = getelementptr inbounds nuw %struct.except_catch, ptr %21, i32 0, i32 2
  %131 = getelementptr inbounds nuw %struct.except_t, ptr %130, i32 0, i32 2
  %132 = load volatile ptr, ptr %131, align 8
  call void @except_free(ptr noundef %132)
  %133 = call ptr @except_pop()
  call void @llvm.lifetime.end.p0(i64 248, ptr %21) #12
  call void @llvm.lifetime.end.p0(i64 24, ptr %20) #12
  call void @llvm.lifetime.end.p0(i64 4, ptr %19) #12
  call void @llvm.lifetime.end.p0(i64 8, ptr %18) #12
  store i32 0, ptr %17, align 4
  br label %134

134:                                              ; preds = %129, %78
  call void @llvm.lifetime.end.p0(i64 8, ptr %16) #12
  call void @llvm.lifetime.end.p0(i64 8, ptr %15) #12
  %135 = load i32, ptr %17, align 4
  switch i32 %135, label %138 [
    i32 0, label %136
  ]

136:                                              ; preds = %134
  br label %137

137:                                              ; preds = %136, %41
  store i32 0, ptr %17, align 4
  br label %138

138:                                              ; preds = %137, %134
  call void @llvm.lifetime.end.p0(i64 8, ptr %14) #12
  call void @llvm.lifetime.end.p0(i64 8, ptr %13) #12
  %139 = load i32, ptr %17, align 4
  switch i32 %139, label %141 [
    i32 0, label %140
    i32 1, label %140
  ]

140:                                              ; preds = %138, %138
  ret void

141:                                              ; preds = %138
  unreachable
}