; Function Attrs: null_pointer_is_valid sspstrong uwtable
define internal fastcc void @dissect_rlc_nr_tm(ptr noundef %0, ptr noundef %1, ptr noundef %2, ptr noundef nonnull readonly captures(none) %3, ptr noundef %4) unnamed_addr #0 {
  %6 = alloca ptr, align 8
  %7 = alloca ptr, align 8
  %8 = alloca i32, align 4
  %9 = alloca %struct.except_stacknode, align 8
  %10 = alloca %struct.except_catch, align 8
  %11 = load i32, ptr @hf_rlc_nr_tm, align 4
  %12 = call ptr (ptr, i32, ptr, i32, i32, ptr, ptr, ...) @proto_tree_add_string_format(ptr noundef %2, i32 noundef %11, ptr noundef %0, i32 noundef 0, i32 noundef 0, ptr noundef nonnull @.str.213, ptr noundef nonnull @.str.22)
  %.not.i = icmp eq ptr %12, null
  br i1 %.not.i, label %proto_item_set_hidden.exit, label %13

13:                                               ; preds = %5
  %14 = getelementptr inbounds nuw i8, ptr %12, i64 40
  %15 = load ptr, ptr %14, align 8
  %.not5.i = icmp eq ptr %15, null
  br i1 %.not5.i, label %proto_item_set_hidden.exit, label %16

16:                                               ; preds = %13
  %17 = getelementptr inbounds nuw i8, ptr %15, i64 28
  %18 = load i32, ptr %17, align 4
  %19 = or i32 %18, 1
  store i32 %19, ptr %17, align 4
  br label %proto_item_set_hidden.exit

proto_item_set_hidden.exit:                       ; preds = %5, %13, %16
  %20 = load i32, ptr @hf_rlc_nr_tm_data, align 4
  %21 = call ptr @proto_tree_add_item(ptr noundef %2, i32 noundef %20, ptr noundef %0, i32 noundef 0, i32 noundef -1, i32 noundef 0)
  %22 = load i8, ptr @global_rlc_nr_call_rrc_for_ccch, align 1, !range !6, !noundef !7
  %23 = trunc nuw i8 %22 to i1
  br i1 %23, label %.thread, label %24

24:                                               ; preds = %proto_item_set_hidden.exit
  %25 = call i32 @tvb_reported_length_remaining(ptr noundef %0, i32 noundef 0)
  call void (ptr, ptr, ptr, ptr, ...) @write_pdu_label_and_info(ptr noundef %4, ptr noundef null, ptr noundef %1, ptr noundef nonnull @.str.225, i32 noundef %25)
  %.pre = load i8, ptr @global_rlc_nr_call_rrc_for_ccch, align 1, !range !6
  %26 = trunc nuw i8 %.pre to i1
  br i1 %26, label %.thread, label %81

.thread:                                          ; preds = %proto_item_set_hidden.exit, %24
  %27 = call ptr @tvb_new_subset_remaining(ptr noundef %0, i32 noundef 0)
  call void @llvm.lifetime.start.p0(i64 8, ptr nonnull %6)
  %28 = getelementptr inbounds nuw i8, ptr %3, i64 3
  %29 = load i8, ptr %28, align 1
  switch i8 %29, label %.sink.split [
    i8 2, label %30
    i8 6, label %32
    i8 3, label %34
    i8 1, label %36
  ]

30:                                               ; preds = %.thread
  %31 = load ptr, ptr @nr_rrc_bcch_bch, align 8
  br label %48

32:                                               ; preds = %.thread
  %33 = load ptr, ptr @nr_rrc_bcch_dl_sch, align 8
  br label %48

34:                                               ; preds = %.thread
  %35 = load ptr, ptr @nr_rrc_pcch, align 8
  br label %48

36:                                               ; preds = %.thread
  %37 = getelementptr inbounds nuw i8, ptr %3, i64 1
  %38 = load i8, ptr %37, align 1
  %39 = icmp eq i8 %38, 0
  br i1 %39, label %40, label %46

40:                                               ; preds = %36
  %41 = call i32 @tvb_reported_length(ptr noundef %27)
  %42 = icmp eq i32 %41, 8
  %43 = load ptr, ptr @nr_rrc_ul_ccch1, align 8
  %44 = load ptr, ptr @nr_rrc_ul_ccch, align 8
  %45 = select i1 %42, ptr %43, ptr %44
  br label %48

46:                                               ; preds = %36
  %47 = load ptr, ptr @nr_rrc_dl_ccch, align 8
  br label %48

48:                                               ; preds = %40, %46, %34, %32, %30
  %.sink = phi ptr [ %45, %40 ], [ %47, %46 ], [ %35, %34 ], [ %33, %32 ], [ %31, %30 ]
  store volatile ptr %.sink, ptr %6, align 8
  %.not.i36 = icmp eq ptr %21, null
  br i1 %.not.i36, label %proto_item_set_hidden.exit38, label %49

49:                                               ; preds = %48
  %50 = getelementptr inbounds nuw i8, ptr %21, i64 40
  %51 = load ptr, ptr %50, align 8
  %.not5.i37 = icmp eq ptr %51, null
  br i1 %.not5.i37, label %proto_item_set_hidden.exit38, label %52

52:                                               ; preds = %49
  %53 = getelementptr inbounds nuw i8, ptr %51, i64 28
  %54 = load i32, ptr %53, align 4
  %55 = or i32 %54, 1
  store i32 %55, ptr %53, align 4
  br label %proto_item_set_hidden.exit38

proto_item_set_hidden.exit38:                     ; preds = %48, %49, %52
  call void @llvm.lifetime.start.p0(i64 8, ptr nonnull %7)
  call void @llvm.lifetime.start.p0(i64 4, ptr nonnull %8)
  store volatile i32 0, ptr %8, align 4
  call void @llvm.lifetime.start.p0(i64 24, ptr nonnull %9) #10
  call void @llvm.lifetime.start.p0(i64 248, ptr nonnull %10) #10
  call void @except_setup_try(ptr noundef nonnull %9, ptr noundef nonnull %10, ptr noundef nonnull @dissect_rlc_nr_tm.catch_spec, i64 noundef 1)
  %56 = getelementptr inbounds nuw i8, ptr %10, i64 48
  %57 = call i32 @_setjmp(ptr noundef nonnull %56) #12
  %.not = icmp eq i32 %57, 0
  %58 = getelementptr inbounds nuw i8, ptr %10, i64 16
  %.sink39 = select i1 %.not, ptr null, ptr %58
  store volatile ptr %.sink39, ptr %7, align 8
  %.0..0..0..0. = load volatile i32, ptr %8, align 4
  %59 = and i32 %.0..0..0..0., 1
  %.not32 = icmp eq i32 %59, 0
  br i1 %.not32, label %62, label %60

60:                                               ; preds = %proto_item_set_hidden.exit38
  %.0..0..0..0.1 = load volatile i32, ptr %8, align 4
  %61 = or i32 %.0..0..0..0.1, 2
  store volatile i32 %61, ptr %8, align 4
  br label %62

62:                                               ; preds = %60, %proto_item_set_hidden.exit38
  %.0..0..0..0.2 = load volatile i32, ptr %8, align 4
  %63 = and i32 %.0..0..0..0.2, -2
  store volatile i32 %63, ptr %8, align 4
  %.0..0..0..0.3 = load volatile i32, ptr %8, align 4
  %64 = icmp eq i32 %.0..0..0..0.3, 0
  br i1 %64, label %65, label %69

65:                                               ; preds = %62
  %.0..0..0..0.7 = load volatile ptr, ptr %7, align 8
  %66 = icmp eq ptr %.0..0..0..0.7, null
  br i1 %66, label %67, label %69

67:                                               ; preds = %65
  %.0..0..0..0.11 = load volatile ptr, ptr %6, align 8
  %68 = call i32 @call_dissector_only(ptr noundef %.0..0..0..0.11, ptr noundef %27, ptr noundef %1, ptr noundef %2, ptr noundef null)
  br label %69

69:                                               ; preds = %67, %65, %62
  %.0..0..0..0.4 = load volatile i32, ptr %8, align 4
  %70 = icmp eq i32 %.0..0..0..0.4, 0
  br i1 %70, label %71, label %74

71:                                               ; preds = %69
  %.0..0..0..0.8 = load volatile ptr, ptr %7, align 8
  %.not33 = icmp eq ptr %.0..0..0..0.8, null
  br i1 %.not33, label %74, label %72

72:                                               ; preds = %71
  %.0..0..0..0.5 = load volatile i32, ptr %8, align 4
  %73 = or i32 %.0..0..0..0.5, 1
  store volatile i32 %73, ptr %8, align 4
  br label %74

74:                                               ; preds = %72, %71, %69
  %.0..0..0..0.6 = load volatile i32, ptr %8, align 4
  %75 = and i32 %.0..0..0..0.6, 1
  %.not34 = icmp eq i32 %75, 0
  br i1 %.not34, label %76, label %.critedge

76:                                               ; preds = %74
  %.0..0..0..0.9 = load volatile ptr, ptr %7, align 8
  %.not35 = icmp eq ptr %.0..0..0..0.9, null
  br i1 %.not35, label %.critedge, label %77

77:                                               ; preds = %76
  %.0..0..0..0.10 = load volatile ptr, ptr %7, align 8
  call void @except_rethrow(ptr noundef %.0..0..0..0.10) #13
  unreachable

.critedge:                                        ; preds = %76, %74
  %78 = getelementptr inbounds nuw i8, ptr %10, i64 40
  %79 = load volatile ptr, ptr %78, align 8
  call void @except_free(ptr noundef %79)
  %80 = call ptr @except_pop()
  call void @llvm.lifetime.end.p0(i64 248, ptr nonnull %10) #10
  call void @llvm.lifetime.end.p0(i64 24, ptr nonnull %9) #10
  call void @llvm.lifetime.end.p0(i64 4, ptr nonnull %8)
  call void @llvm.lifetime.end.p0(i64 8, ptr nonnull %7)
  br label %.sink.split

.sink.split:                                      ; preds = %.thread, %.critedge
  call void @llvm.lifetime.end.p0(i64 8, ptr nonnull %6)
  br label %81

81:                                               ; preds = %.sink.split, %24
  ret void
}